target datalayout = "e-m:e-p270:32:32-p271:32:32-p272:64:64-i64:64-i128:128-f80:128-n8:16:32:64-S128"
target triple = "x86_64-pc-linux-gnu"

%struct.Gia_Obj_t_ = type <{ i64, i32 }>
%struct.Gia_Man_t_ = type { ptr, ptr, i32, i32, i32, i32, ptr, ptr, i32, i32, i32, ptr, ptr, %struct.Vec_Int_t_, %struct.Vec_Int_t_, i32, i32, i32, %struct.Vec_Int_t_, ptr, ptr, ptr, i32, i32, i32, i32, ptr, ptr, ptr, ptr, ptr, i32, i32, ptr, i32, ptr, ptr, ptr, ptr, ptr, ptr, ptr, ptr, ptr, ptr, ptr, ptr, ptr, ptr, ptr, ptr, ptr, ptr, %struct.Vec_Int_t_, %struct.Vec_Int_t_, ptr, ptr, ptr, ptr, ptr, ptr, ptr, ptr, ptr, ptr, ptr, ptr, ptr, ptr, ptr, ptr, ptr, ptr, ptr, ptr, ptr, i32, float, float, ptr, ptr, i32, ptr, ptr, ptr, ptr, ptr, ptr, ptr, ptr, ptr, ptr, ptr, ptr, ptr, ptr, ptr, i64, i64, ptr, ptr, i32, i32, i32, i32, i32, i32, i32, i32, i32, i32, i32, i32, ptr, ptr, ptr, ptr, ptr, ptr, ptr, ptr, i32, i32, i32, ptr, i32, i32, ptr, ptr, ptr, ptr, ptr, ptr, i32, i32, ptr, %struct.Vec_Int_t_, %struct.Vec_Int_t_, %struct.Vec_Int_t_, ptr, ptr, ptr }
%struct.Vec_Int_t_ = type { i32, i32, ptr }
%struct.Vec_Bit_t_ = type { i32, i32, ptr }

@__const.Pas_ManVerifyPhaseOne.Truths = private unnamed_addr constant [3 x i32] [i32 170, i32 204, i32 240], align 4
@.str = private unnamed_addr constant [23 x i8] c"Fadd %d sum is wrong.\0A\00", align 1
@.str.1 = private unnamed_addr constant [25 x i8] c"Fadd %d carry is wrong.\0A\00", align 1
@.str.2 = private unnamed_addr constant [23 x i8] c"Hadd %d sum is wrong.\0A\00", align 1
@.str.3 = private unnamed_addr constant [25 x i8] c"Hadd %d carry is wrong.\0A\00", align 1

; Function Attrs: nounwind uwtable
define internal i32 @Gia_ObjId(ptr noundef %0, ptr noundef %1) #0 {
  %3 = alloca ptr, align 8
  %4 = alloca ptr, align 8
  store ptr %0, ptr %3, align 8
  store ptr %1, ptr %4, align 8
  %5 = load ptr, ptr %4, align 8
  %6 = load ptr, ptr %3, align 8
  %7 = getelementptr inbounds %struct.Gia_Man_t_, ptr %6, i32 0, i32 6
  %8 = load ptr, ptr %7, align 8
  %9 = ptrtoint ptr %5 to i64
  %10 = ptrtoint ptr %8 to i64
  %11 = sub i64 %9, %10
  %12 = sdiv exact i64 %11, 12
  %13 = trunc i64 %12 to i32
  ret i32 %13
}

; Function Attrs: nounwind uwtable
define internal void @Gia_ObjSetTravIdCurrent(ptr noundef %0, ptr noundef %1) #0 {
  %3 = alloca ptr, align 8
  %4 = alloca ptr, align 8
  store ptr %0, ptr %3, align 8
  store ptr %1, ptr %4, align 8
  %5 = load ptr, ptr %3, align 8
  %6 = getelementptr inbounds %struct.Gia_Man_t_, ptr %5, i32 0, i32 24
  %7 = load i32, ptr %6, align 8
  %8 = load ptr, ptr %3, align 8
  %9 = getelementptr inbounds %struct.Gia_Man_t_, ptr %8, i32 0, i32 80
  %10 = load ptr, ptr %9, align 8
  %11 = load ptr, ptr %3, align 8
  %12 = load ptr, ptr %4, align 8
  %13 = call i32 @Gia_ObjId(ptr noundef %11, ptr noundef %12)
  %14 = sext i32 %13 to i64
  %15 = getelementptr inbounds i32, ptr %10, i64 %14
  store i32 %7, ptr %15, align 4
  ret void
}

; Function Attrs: nounwind uwtable
define internal i32 @Vec_BitEntry(ptr noundef %0, i32 noundef %1) #0 {
  %3 = alloca ptr, align 8
  %4 = alloca i32, align 4
  store ptr %0, ptr %3, align 8
  store i32 %1, ptr %4, align 4
  %5 = load ptr, ptr %3, align 8
  %6 = getelementptr inbounds %struct.Vec_Bit_t_, ptr %5, i32 0, i32 2
  %7 = load ptr, ptr %6, align 8
  %8 = load i32, ptr %4, align 4
  %9 = ashr i32 %8, 5
  %10 = sext i32 %9 to i64
  %11 = getelementptr inbounds i32, ptr %7, i64 %10
  %12 = load i32, ptr %11, align 4
  %13 = load i32, ptr %4, align 4
  %14 = and i32 %13, 31
  %15 = ashr i32 %12, %14
  %16 = and i32 %15, 1
  ret i32 %16
}

; Function Attrs: nounwind uwtable
define internal ptr @Gia_ManObj(ptr noundef %0, i32 noundef %1) #0 {
  %3 = alloca ptr, align 8
  %4 = alloca i32, align 4
  store ptr %0, ptr %3, align 8
  store i32 %1, ptr %4, align 4
  %5 = load ptr, ptr %3, align 8
  %6 = getelementptr inbounds %struct.Gia_Man_t_, ptr %5, i32 0, i32 6
  %7 = load ptr, ptr %6, align 8
  %8 = load i32, ptr %4, align 4
  %9 = sext i32 %8 to i64
  %10 = getelementptr inbounds %struct.Gia_Obj_t_, ptr %7, i64 %9
  ret ptr %10
}

; Function Attrs: nounwind uwtable
define internal i32 @Vec_IntEntry(ptr noundef %0, i32 noundef %1) #0 {
  %3 = alloca ptr, align 8
  %4 = alloca i32, align 4
  store ptr %0, ptr %3, align 8
  store i32 %1, ptr %4, align 4
  %5 = load ptr, ptr %3, align 8
  %6 = getelementptr inbounds %struct.Vec_Int_t_, ptr %5, i32 0, i32 2
  %7 = load ptr, ptr %6, align 8
  %8 = load i32, ptr %4, align 4
  %9 = sext i32 %8 to i64
  %10 = getelementptr inbounds i32, ptr %7, i64 %9
  %11 = load i32, ptr %10, align 4
  ret i32 %11
}

; Function Attrs: nounwind uwtable
define void @Pas_ManVerifyPhaseOne(ptr noundef %0, ptr noundef %1, i32 noundef %2, ptr noundef %3) #0 {
  %5 = alloca ptr, align 8
  %6 = alloca ptr, align 8
  %7 = alloca i32, align 4
  %8 = alloca ptr, align 8
  %9 = alloca ptr, align 8
  %10 = alloca i32, align 4
  %11 = alloca i32, align 4
  %12 = alloca [3 x i32], align 4
  %13 = alloca i32, align 4
  %14 = alloca i32, align 4
  %15 = alloca i32, align 4
  store ptr %0, ptr %5, align 8
  store ptr %1, ptr %6, align 8
  store i32 %2, ptr %7, align 4
  store ptr %3, ptr %8, align 8
  call void @llvm.memcpy.p0.p0.i64(ptr align 4 %12, ptr align 4 @__const.Pas_ManVerifyPhaseOne.Truths, i64 12, i1 false)
  %16 = load ptr, ptr %6, align 8
  %17 = load i32, ptr %7, align 4
  %18 = mul nsw i32 6, %17
  %19 = add nsw i32 %18, 2
  %20 = call i32 @Vec_IntEntry(ptr noundef %16, i32 noundef %19)
  %21 = icmp sgt i32 %20, 0
  %22 = zext i1 %21 to i32
  store i32 %22, ptr %15, align 4
  %23 = load i32, ptr %15, align 4
  %24 = icmp ne i32 %23, 0
  br i1 %24, label %26, label %25

25:                                               ; preds = %4
  br label %143

26:                                               ; preds = %4
  %27 = load ptr, ptr %5, align 8
  call void @Gia_ManIncrementTravId(ptr noundef %27)
  store i32 0, ptr %13, align 4
  br label %28

28:                                               ; preds = %67, %26
  %29 = load i32, ptr %13, align 4
  %30 = icmp slt i32 %29, 3
  br i1 %30, label %31, label %70

31:                                               ; preds = %28
  %32 = load ptr, ptr %6, align 8
  %33 = load i32, ptr %7, align 4
  %34 = mul nsw i32 6, %33
  %35 = load i32, ptr %13, align 4
  %36 = add nsw i32 %34, %35
  %37 = call i32 @Vec_IntEntry(ptr noundef %32, i32 noundef %36)
  store i32 %37, ptr %14, align 4
  %38 = load i32, ptr %14, align 4
  %39 = icmp eq i32 %38, 0
  br i1 %39, label %40, label %41

40:                                               ; preds = %31
  br label %67

41:                                               ; preds = %31
  %42 = load ptr, ptr %5, align 8
  %43 = load i32, ptr %14, align 4
  %44 = call ptr @Gia_ManObj(ptr noundef %42, i32 noundef %43)
  store ptr %44, ptr %9, align 8
  %45 = load ptr, ptr %8, align 8
  %46 = load i32, ptr %14, align 4
  %47 = call i32 @Vec_BitEntry(ptr noundef %45, i32 noundef %46)
  %48 = icmp ne i32 %47, 0
  br i1 %48, label %49, label %56

49:                                               ; preds = %41
  %50 = load i32, ptr %13, align 4
  %51 = sext i32 %50 to i64
  %52 = getelementptr inbounds [3 x i32], ptr %12, i64 0, i64 %51
  %53 = load i32, ptr %52, align 4
  %54 = xor i32 %53, -1
  %55 = and i32 255, %54
  br label %61

56:                                               ; preds = %41
  %57 = load i32, ptr %13, align 4
  %58 = sext i32 %57 to i64
  %59 = getelementptr inbounds [3 x i32], ptr %12, i64 0, i64 %58
  %60 = load i32, ptr %59, align 4
  br label %61

61:                                               ; preds = %56, %49
  %62 = phi i32 [ %55, %49 ], [ %60, %56 ]
  %63 = load ptr, ptr %9, align 8
  %64 = getelementptr inbounds %struct.Gia_Obj_t_, ptr %63, i32 0, i32 1
  store i32 %62, ptr %64, align 4
  %65 = load ptr, ptr %5, align 8
  %66 = load ptr, ptr %9, align 8
  call void @Gia_ObjSetTravIdCurrent(ptr noundef %65, ptr noundef %66)
  br label %67

67:                                               ; preds = %61, %40
  %68 = load i32, ptr %13, align 4
  %69 = add nsw i32 %68, 1
  store i32 %69, ptr %13, align 4
  br label %28, !llvm.loop !4

70:                                               ; preds = %28
  %71 = load ptr, ptr %6, align 8
  %72 = load i32, ptr %7, align 4
  %73 = mul nsw i32 6, %72
  %74 = add nsw i32 %73, 3
  %75 = call i32 @Vec_IntEntry(ptr noundef %71, i32 noundef %74)
  store i32 %75, ptr %14, align 4
  %76 = load ptr, ptr %5, align 8
  %77 = load ptr, ptr %5, align 8
  %78 = load i32, ptr %14, align 4
  %79 = call ptr @Gia_ManObj(ptr noundef %77, i32 noundef %78)
  %80 = call i32 @Pas_ManVerifyPhaseOne_rec(ptr noundef %76, ptr noundef %79)
  store i32 %80, ptr %10, align 4
  %81 = load ptr, ptr %8, align 8
  %82 = load i32, ptr %14, align 4
  %83 = call i32 @Vec_BitEntry(ptr noundef %81, i32 noundef %82)
  %84 = icmp ne i32 %83, 0
  br i1 %84, label %85, label %89

85:                                               ; preds = %70
  %86 = load i32, ptr %10, align 4
  %87 = xor i32 %86, -1
  %88 = and i32 255, %87
  br label %91

89:                                               ; preds = %70
  %90 = load i32, ptr %10, align 4
  br label %91

91:                                               ; preds = %89, %85
  %92 = phi i32 [ %88, %85 ], [ %90, %89 ]
  store i32 %92, ptr %10, align 4
  %93 = load ptr, ptr %6, align 8
  %94 = load i32, ptr %7, align 4
  %95 = mul nsw i32 6, %94
  %96 = add nsw i32 %95, 4
  %97 = call i32 @Vec_IntEntry(ptr noundef %93, i32 noundef %96)
  store i32 %97, ptr %14, align 4
  %98 = load ptr, ptr %5, align 8
  %99 = load ptr, ptr %5, align 8
  %100 = load i32, ptr %14, align 4
  %101 = call ptr @Gia_ManObj(ptr noundef %99, i32 noundef %100)
  %102 = call i32 @Pas_ManVerifyPhaseOne_rec(ptr noundef %98, ptr noundef %101)
  store i32 %102, ptr %11, align 4
  %103 = load ptr, ptr %8, align 8
  %104 = load i32, ptr %14, align 4
  %105 = call i32 @Vec_BitEntry(ptr noundef %103, i32 noundef %104)
  %106 = icmp ne i32 %105, 0
  br i1 %106, label %107, label %111

107:                                              ; preds = %91
  %108 = load i32, ptr %11, align 4
  %109 = xor i32 %108, -1
  %110 = and i32 255, %109
  br label %113

111:                                              ; preds = %91
  %112 = load i32, ptr %11, align 4
  br label %113

113:                                              ; preds = %111, %107
  %114 = phi i32 [ %110, %107 ], [ %112, %111 ]
  store i32 %114, ptr %11, align 4
  %115 = load i32, ptr %15, align 4
  %116 = icmp ne i32 %115, 0
  br i1 %116, label %117, label %130

117:                                              ; preds = %113
  %118 = load i32, ptr %10, align 4
  %119 = icmp ne i32 %118, 150
  br i1 %119, label %120, label %123

120:                                              ; preds = %117
  %121 = load i32, ptr %7, align 4
  %122 = call i32 (ptr, ...) @printf(ptr noundef @.str, i32 noundef %121)
  br label %123

123:                                              ; preds = %120, %117
  %124 = load i32, ptr %11, align 4
  %125 = icmp ne i32 %124, 232
  br i1 %125, label %126, label %129

126:                                              ; preds = %123
  %127 = load i32, ptr %7, align 4
  %128 = call i32 (ptr, ...) @printf(ptr noundef @.str.1, i32 noundef %127)
  br label %129

129:                                              ; preds = %126, %123
  br label %143

130:                                              ; preds = %113
  %131 = load i32, ptr %10, align 4
  %132 = icmp ne i32 %131, 102
  br i1 %132, label %133, label %136

133:                                              ; preds = %130
  %134 = load i32, ptr %7, align 4
  %135 = call i32 (ptr, ...) @printf(ptr noundef @.str.2, i32 noundef %134)
  br label %136

136:                                              ; preds = %133, %130
  %137 = load i32, ptr %11, align 4
  %138 = icmp ne i32 %137, 136
  br i1 %138, label %139, label %142

139:                                              ; preds = %136
  %140 = load i32, ptr %7, align 4
  %141 = call i32 (ptr, ...) @printf(ptr noundef @.str.3, i32 noundef %140)
  br label %142

142:                                              ; preds = %139, %136
  br label %143

143:                                              ; preds = %142, %129, %25
  ret void
}