; Function Attrs: nounwind uwtable
define void @Pas_ManVerifyPhaseOne(ptr noundef %0, ptr noundef readonly captures(none) %1, i32 noundef %2, ptr noundef readonly captures(none) %3) local_unnamed_addr #1 {
  %5 = mul nsw i32 %2, 6
  %6 = getelementptr i8, ptr %1, i64 8
  %.val = load ptr, ptr %6, align 8
  %7 = sext i32 %5 to i64
  %8 = getelementptr i32, ptr %.val, i64 %7
  %9 = getelementptr i8, ptr %8, i64 8
  %10 = load i32, ptr %9, align 4
  %11 = icmp sgt i32 %10, 0
  br i1 %11, label %12, label %85

12:                                               ; preds = %4
  tail call void @Gia_ManIncrementTravId(ptr noundef %0) #13
  %13 = getelementptr i8, ptr %0, i64 32
  %14 = getelementptr i8, ptr %3, i64 8
  %15 = getelementptr inbounds nuw i8, ptr %0, i64 176
  %16 = getelementptr inbounds nuw i8, ptr %0, i64 616
  br label %17

17:                                               ; preds = %12, %46
  %indvars.iv = phi i64 [ 0, %12 ], [ %indvars.iv.next, %46 ]
  %.val51 = load ptr, ptr %6, align 8
  %18 = getelementptr i32, ptr %.val51, i64 %indvars.iv
  %19 = getelementptr i32, ptr %18, i64 %7
  %20 = load i32, ptr %19, align 4
  %21 = icmp eq i32 %20, 0
  br i1 %21, label %46, label %22

22:                                               ; preds = %17
  %.val54 = load ptr, ptr %13, align 8
  %23 = sext i32 %20 to i64
  %24 = getelementptr inbounds %struct.Gia_Obj_t_, ptr %.val54, i64 %23
  %.val57 = load ptr, ptr %14, align 8
  %25 = ashr i32 %20, 5
  %26 = sext i32 %25 to i64
  %27 = getelementptr inbounds i32, ptr %.val57, i64 %26
  %28 = load i32, ptr %27, align 4
  %29 = and i32 %20, 31
  %30 = shl nuw i32 1, %29
  %31 = and i32 %28, %30
  %.not50 = icmp eq i32 %31, 0
  %32 = getelementptr inbounds nuw [3 x i32], ptr @__const.Pas_ManVerifyPhaseOne.Truths, i64 0, i64 %indvars.iv
  %33 = load i32, ptr %32, align 4
  %34 = and i32 %33, 255
  %35 = xor i32 %34, 255
  %36 = select i1 %.not50, i32 %33, i32 %35
  %37 = getelementptr inbounds nuw i8, ptr %24, i64 8
  store i32 %36, ptr %37, align 4
  %38 = load i32, ptr %15, align 8
  %39 = load ptr, ptr %16, align 8
  %.val.i = load ptr, ptr %13, align 8
  %40 = ptrtoint ptr %24 to i64
  %41 = ptrtoint ptr %.val.i to i64
  %42 = sub i64 %40, %41
  %43 = sdiv exact i64 %42, 12
  %sext.i = shl i64 %43, 32
  %44 = ashr exact i64 %sext.i, 30
  %45 = getelementptr inbounds i8, ptr %39, i64 %44
  store i32 %38, ptr %45, align 4
  br label %46

46:                                               ; preds = %17, %22
  %indvars.iv.next = add nuw nsw i64 %indvars.iv, 1
  %exitcond.not = icmp eq i64 %indvars.iv.next, 3
  br i1 %exitcond.not, label %47, label %17, !llvm.loop !4

47:                                               ; preds = %46
  %.val52 = load ptr, ptr %6, align 8
  %48 = getelementptr i32, ptr %.val52, i64 %7
  %49 = getelementptr i8, ptr %48, i64 12
  %50 = load i32, ptr %49, align 4
  %.val55 = load ptr, ptr %13, align 8
  %51 = sext i32 %50 to i64
  %52 = getelementptr inbounds %struct.Gia_Obj_t_, ptr %.val55, i64 %51
  %53 = tail call i32 @Pas_ManVerifyPhaseOne_rec(ptr noundef %0, ptr noundef %52)
  %.val58 = load ptr, ptr %14, align 8
  %54 = ashr i32 %50, 5
  %55 = sext i32 %54 to i64
  %56 = getelementptr inbounds i32, ptr %.val58, i64 %55
  %57 = load i32, ptr %56, align 4
  %58 = and i32 %50, 31
  %.val53 = load ptr, ptr %6, align 8
  %59 = getelementptr i32, ptr %.val53, i64 %7
  %60 = getelementptr i8, ptr %59, i64 16
  %61 = load i32, ptr %60, align 4
  %.val56 = load ptr, ptr %13, align 8
  %62 = sext i32 %61 to i64
  %63 = getelementptr inbounds %struct.Gia_Obj_t_, ptr %.val56, i64 %62
  %64 = tail call i32 @Pas_ManVerifyPhaseOne_rec(ptr noundef %0, ptr noundef %63)
  %.val59 = load ptr, ptr %14, align 8
  %65 = ashr i32 %61, 5
  %66 = sext i32 %65 to i64
  %67 = getelementptr inbounds i32, ptr %.val59, i64 %66
  %68 = load i32, ptr %67, align 4
  %69 = and i32 %61, 31
  %70 = shl nuw i32 1, %69
  %71 = and i32 %68, %70
  %.not47 = icmp eq i32 %71, 0
  %72 = and i32 %64, 255
  %73 = xor i32 %72, 255
  %74 = select i1 %.not47, i32 %64, i32 %73
  %75 = shl nuw i32 1, %58
  %76 = and i32 %57, %75
  %.not = icmp eq i32 %76, 0
  %77 = and i32 %53, 255
  %78 = xor i32 %77, 255
  %79 = select i1 %.not, i32 %53, i32 %78
  %.not48 = icmp eq i32 %79, 150
  br i1 %.not48, label %82, label %80

80:                                               ; preds = %47
  %81 = tail call i32 (ptr, ...) @printf(ptr noundef nonnull dereferenceable(1) @.str, i32 noundef %2)
  br label %82

82:                                               ; preds = %80, %47
  %.not49 = icmp eq i32 %74, 232
  br i1 %.not49, label %85, label %83

83:                                               ; preds = %82
  %84 = tail call i32 (ptr, ...) @printf(ptr noundef nonnull dereferenceable(1) @.str.1, i32 noundef %2)
  br label %85

85:                                               ; preds = %82, %83, %4
  ret void
}